target datalayout = "e-m:e-p270:32:32-p271:32:32-p272:64:64-i64:64-i128:128-f80:128-n8:16:32:64-S128"
target triple = "x86_64-pc-linux-gnu"

%struct.JNINativeInterface_ = type { ptr, ptr, ptr, ptr, ptr, ptr, ptr, ptr, ptr, ptr, ptr, ptr, ptr, ptr, ptr, ptr, ptr, ptr, ptr, ptr, ptr, ptr, ptr, ptr, ptr, ptr, ptr, ptr, ptr, ptr, ptr, ptr, ptr, ptr, ptr, ptr, ptr, ptr, ptr, ptr, ptr, ptr, ptr, ptr, ptr, ptr, ptr, ptr, ptr, ptr, ptr, ptr, ptr, ptr, ptr, ptr, ptr, ptr, ptr, ptr, ptr, ptr, ptr, ptr, ptr, ptr, ptr, ptr, ptr, ptr, ptr, ptr, ptr, ptr, ptr, ptr, ptr, ptr, ptr, ptr, ptr, ptr, ptr, ptr, ptr, ptr, ptr, ptr, ptr, ptr, ptr, ptr, ptr, ptr, ptr, ptr, ptr, ptr, ptr, ptr, ptr, ptr, ptr, ptr, ptr, ptr, ptr, ptr, ptr, ptr, ptr, ptr, ptr, ptr, ptr, ptr, ptr, ptr, ptr, ptr, ptr, ptr, ptr, ptr, ptr, ptr, ptr, ptr, ptr, ptr, ptr, ptr, ptr, ptr, ptr, ptr, ptr, ptr, ptr, ptr, ptr, ptr, ptr, ptr, ptr, ptr, ptr, ptr, ptr, ptr, ptr, ptr, ptr, ptr, ptr, ptr, ptr, ptr, ptr, ptr, ptr, ptr, ptr, ptr, ptr, ptr, ptr, ptr, ptr, ptr, ptr, ptr, ptr, ptr, ptr, ptr, ptr, ptr, ptr, ptr, ptr, ptr, ptr, ptr, ptr, ptr, ptr, ptr, ptr, ptr, ptr, ptr, ptr, ptr, ptr, ptr, ptr, ptr, ptr, ptr, ptr, ptr, ptr, ptr, ptr, ptr, ptr, ptr, ptr, ptr, ptr, ptr, ptr, ptr, ptr, ptr, ptr, ptr, ptr, ptr, ptr, ptr, ptr, ptr, ptr, ptr, ptr, ptr, ptr, ptr, ptr, ptr, ptr, ptr, ptr }
%struct.stat = type { i64, i64, i64, i32, i32, i32, i32, i64, i64, i64, i64, %struct.timespec, %struct.timespec, %struct.timespec, [3 x i64] }
%struct.timespec = type { i64, i64 }

@attrs_st_mode = internal global ptr null, align 8
@attrs_st_ino = internal global ptr null, align 8
@attrs_st_dev = internal global ptr null, align 8
@attrs_st_rdev = internal global ptr null, align 8
@attrs_st_nlink = internal global ptr null, align 8
@attrs_st_uid = internal global ptr null, align 8
@attrs_st_gid = internal global ptr null, align 8
@attrs_st_size = internal global ptr null, align 8
@attrs_st_atime_sec = internal global ptr null, align 8
@attrs_st_atime_nsec = internal global ptr null, align 8
@attrs_st_mtime_sec = internal global ptr null, align 8
@attrs_st_mtime_nsec = internal global ptr null, align 8
@attrs_st_ctime_sec = internal global ptr null, align 8
@attrs_st_ctime_nsec = internal global ptr null, align 8

; Function Attrs: nounwind uwtable
define internal void @copy_stat_attributes(ptr noundef %0, ptr noundef %1, ptr noundef %2) #0 {
  %4 = alloca ptr, align 8
  %5 = alloca ptr, align 8
  %6 = alloca ptr, align 8
  store ptr %0, ptr %4, align 8
  store ptr %1, ptr %5, align 8
  store ptr %2, ptr %6, align 8
  %7 = load ptr, ptr %4, align 8
  %8 = load ptr, ptr %7, align 8
  %9 = getelementptr inbounds %struct.JNINativeInterface_, ptr %8, i32 0, i32 109
  %10 = load ptr, ptr %9, align 8
  %11 = load ptr, ptr %4, align 8
  %12 = load ptr, ptr %6, align 8
  %13 = load ptr, ptr @attrs_st_mode, align 8
  %14 = load ptr, ptr %5, align 8
  %15 = getelementptr inbounds %struct.stat, ptr %14, i32 0, i32 3
  %16 = load i32, ptr %15, align 8
  call void %10(ptr noundef %11, ptr noundef %12, ptr noundef %13, i32 noundef %16)
  %17 = load ptr, ptr %4, align 8
  %18 = load ptr, ptr %17, align 8
  %19 = getelementptr inbounds %struct.JNINativeInterface_, ptr %18, i32 0, i32 110
  %20 = load ptr, ptr %19, align 8
  %21 = load ptr, ptr %4, align 8
  %22 = load ptr, ptr %6, align 8
  %23 = load ptr, ptr @attrs_st_ino, align 8
  %24 = load ptr, ptr %5, align 8
  %25 = getelementptr inbounds %struct.stat, ptr %24, i32 0, i32 1
  %26 = load i64, ptr %25, align 8
  call void %20(ptr noundef %21, ptr noundef %22, ptr noundef %23, i64 noundef %26)
  %27 = load ptr, ptr %4, align 8
  %28 = load ptr, ptr %27, align 8
  %29 = getelementptr inbounds %struct.JNINativeInterface_, ptr %28, i32 0, i32 110
  %30 = load ptr, ptr %29, align 8
  %31 = load ptr, ptr %4, align 8
  %32 = load ptr, ptr %6, align 8
  %33 = load ptr, ptr @attrs_st_dev, align 8
  %34 = load ptr, ptr %5, align 8
  %35 = getelementptr inbounds %struct.stat, ptr %34, i32 0, i32 0
  %36 = load i64, ptr %35, align 8
  call void %30(ptr noundef %31, ptr noundef %32, ptr noundef %33, i64 noundef %36)
  %37 = load ptr, ptr %4, align 8
  %38 = load ptr, ptr %37, align 8
  %39 = getelementptr inbounds %struct.JNINativeInterface_, ptr %38, i32 0, i32 110
  %40 = load ptr, ptr %39, align 8
  %41 = load ptr, ptr %4, align 8
  %42 = load ptr, ptr %6, align 8
  %43 = load ptr, ptr @attrs_st_rdev, align 8
  %44 = load ptr, ptr %5, align 8
  %45 = getelementptr inbounds %struct.stat, ptr %44, i32 0, i32 7
  %46 = load i64, ptr %45, align 8
  call void %40(ptr noundef %41, ptr noundef %42, ptr noundef %43, i64 noundef %46)
  %47 = load ptr, ptr %4, align 8
  %48 = load ptr, ptr %47, align 8
  %49 = getelementptr inbounds %struct.JNINativeInterface_, ptr %48, i32 0, i32 109
  %50 = load ptr, ptr %49, align 8
  %51 = load ptr, ptr %4, align 8
  %52 = load ptr, ptr %6, align 8
  %53 = load ptr, ptr @attrs_st_nlink, align 8
  %54 = load ptr, ptr %5, align 8
  %55 = getelementptr inbounds %struct.stat, ptr %54, i32 0, i32 2
  %56 = load i64, ptr %55, align 8
  %57 = trunc i64 %56 to i32
  call void %50(ptr noundef %51, ptr noundef %52, ptr noundef %53, i32 noundef %57)
  %58 = load ptr, ptr %4, align 8
  %59 = load ptr, ptr %58, align 8
  %60 = getelementptr inbounds %struct.JNINativeInterface_, ptr %59, i32 0, i32 109
  %61 = load ptr, ptr %60, align 8
  %62 = load ptr, ptr %4, align 8
  %63 = load ptr, ptr %6, align 8
  %64 = load ptr, ptr @attrs_st_uid, align 8
  %65 = load ptr, ptr %5, align 8
  %66 = getelementptr inbounds %struct.stat, ptr %65, i32 0, i32 4
  %67 = load i32, ptr %66, align 4
  call void %61(ptr noundef %62, ptr noundef %63, ptr noundef %64, i32 noundef %67)
  %68 = load ptr, ptr %4, align 8
  %69 = load ptr, ptr %68, align 8
  %70 = getelementptr inbounds %struct.JNINativeInterface_, ptr %69, i32 0, i32 109
  %71 = load ptr, ptr %70, align 8
  %72 = load ptr, ptr %4, align 8
  %73 = load ptr, ptr %6, align 8
  %74 = load ptr, ptr @attrs_st_gid, align 8
  %75 = load ptr, ptr %5, align 8
  %76 = getelementptr inbounds %struct.stat, ptr %75, i32 0, i32 5
  %77 = load i32, ptr %76, align 8
  call void %71(ptr noundef %72, ptr noundef %73, ptr noundef %74, i32 noundef %77)
  %78 = load ptr, ptr %4, align 8
  %79 = load ptr, ptr %78, align 8
  %80 = getelementptr inbounds %struct.JNINativeInterface_, ptr %79, i32 0, i32 110
  %81 = load ptr, ptr %80, align 8
  %82 = load ptr, ptr %4, align 8
  %83 = load ptr, ptr %6, align 8
  %84 = load ptr, ptr @attrs_st_size, align 8
  %85 = load ptr, ptr %5, align 8
  %86 = getelementptr inbounds %struct.stat, ptr %85, i32 0, i32 8
  %87 = load i64, ptr %86, align 8
  call void %81(ptr noundef %82, ptr noundef %83, ptr noundef %84, i64 noundef %87)
  %88 = load ptr, ptr %4, align 8
  %89 = load ptr, ptr %88, align 8
  %90 = getelementptr inbounds %struct.JNINativeInterface_, ptr %89, i32 0, i32 110
  %91 = load ptr, ptr %90, align 8
  %92 = load ptr, ptr %4, align 8
  %93 = load ptr, ptr %6, align 8
  %94 = load ptr, ptr @attrs_st_atime_sec, align 8
  %95 = load ptr, ptr %5, align 8
  %96 = getelementptr inbounds %struct.stat, ptr %95, i32 0, i32 11
  %97 = getelementptr inbounds %struct.timespec, ptr %96, i32 0, i32 0
  %98 = load i64, ptr %97, align 8
  call void %91(ptr noundef %92, ptr noundef %93, ptr noundef %94, i64 noundef %98)
  %99 = load ptr, ptr %4, align 8
  %100 = load ptr, ptr %99, align 8
  %101 = getelementptr inbounds %struct.JNINativeInterface_, ptr %100, i32 0, i32 110
  %102 = load ptr, ptr %101, align 8
  %103 = load ptr, ptr %4, align 8
  %104 = load ptr, ptr %6, align 8
  %105 = load ptr, ptr @attrs_st_mtime_sec, align 8
  %106 = load ptr, ptr %5, align 8
  %107 = getelementptr inbounds %struct.stat, ptr %106, i32 0, i32 12
  %108 = getelementptr inbounds %struct.timespec, ptr %107, i32 0, i32 0
  %109 = load i64, ptr %108, align 8
  call void %102(ptr noundef %103, ptr noundef %104, ptr noundef %105, i64 noundef %109)
  %110 = load ptr, ptr %4, align 8
  %111 = load ptr, ptr %110, align 8
  %112 = getelementptr inbounds %struct.JNINativeInterface_, ptr %111, i32 0, i32 110
  %113 = load ptr, ptr %112, align 8
  %114 = load ptr, ptr %4, align 8
  %115 = load ptr, ptr %6, align 8
  %116 = load ptr, ptr @attrs_st_ctime_sec, align 8
  %117 = load ptr, ptr %5, align 8
  %118 = getelementptr inbounds %struct.stat, ptr %117, i32 0, i32 13
  %119 = getelementptr inbounds %struct.timespec, ptr %118, i32 0, i32 0
  %120 = load i64, ptr %119, align 8
  call void %113(ptr noundef %114, ptr noundef %115, ptr noundef %116, i64 noundef %120)
  %121 = load ptr, ptr %4, align 8
  %122 = load ptr, ptr %121, align 8
  %123 = getelementptr inbounds %struct.JNINativeInterface_, ptr %122, i32 0, i32 110
  %124 = load ptr, ptr %123, align 8
  %125 = load ptr, ptr %4, align 8
  %126 = load ptr, ptr %6, align 8
  %127 = load ptr, ptr @attrs_st_atime_nsec, align 8
  %128 = load ptr, ptr %5, align 8
  %129 = getelementptr inbounds %struct.stat, ptr %128, i32 0, i32 11
  %130 = getelementptr inbounds %struct.timespec, ptr %129, i32 0, i32 1
  %131 = load i64, ptr %130, align 8
  call void %124(ptr noundef %125, ptr noundef %126, ptr noundef %127, i64 noundef %131)
  %132 = load ptr, ptr %4, align 8
  %133 = load ptr, ptr %132, align 8
  %134 = getelementptr inbounds %struct.JNINativeInterface_, ptr %133, i32 0, i32 110
  %135 = load ptr, ptr %134, align 8
  %136 = load ptr, ptr %4, align 8
  %137 = load ptr, ptr %6, align 8
  %138 = load ptr, ptr @attrs_st_mtime_nsec, align 8
  %139 = load ptr, ptr %5, align 8
  %140 = getelementptr inbounds %struct.stat, ptr %139, i32 0, i32 12
  %141 = getelementptr inbounds %struct.timespec, ptr %140, i32 0, i32 1
  %142 = load i64, ptr %141, align 8
  call void %135(ptr noundef %136, ptr noundef %137, ptr noundef %138, i64 noundef %142)
  %143 = load ptr, ptr %4, align 8
  %144 = load ptr, ptr %143, align 8
  %145 = getelementptr inbounds %struct.JNINativeInterface_, ptr %144, i32 0, i32 110
  %146 = load ptr, ptr %145, align 8
  %147 = load ptr, ptr %4, align 8
  %148 = load ptr, ptr %6, align 8
  %149 = load ptr, ptr @attrs_st_ctime_nsec, align 8
  %150 = load ptr, ptr %5, align 8
  %151 = getelementptr inbounds %struct.stat, ptr %150, i32 0, i32 13
  %152 = getelementptr inbounds %struct.timespec, ptr %151, i32 0, i32 1
  %153 = load i64, ptr %152, align 8
  call void %146(ptr noundef %147, ptr noundef %148, ptr noundef %149, i64 noundef %153)
  ret void
}