; Function Attrs: nounwind uwtable
define internal fastcc void @copy_stat_attributes(ptr noundef %0, ptr nocapture noundef readonly %1, ptr noundef %2) unnamed_addr #0 {
  %4 = load ptr, ptr %0, align 8
  %5 = getelementptr inbounds i8, ptr %4, i64 872
  %6 = load ptr, ptr %5, align 8
  %7 = load ptr, ptr @attrs_st_mode, align 8
  %8 = getelementptr inbounds i8, ptr %1, i64 24
  %9 = load i32, ptr %8, align 8
  tail call void %6(ptr noundef nonnull %0, ptr noundef %2, ptr noundef %7, i32 noundef %9) #11
  %10 = load ptr, ptr %0, align 8
  %11 = getelementptr inbounds i8, ptr %10, i64 880
  %12 = load ptr, ptr %11, align 8
  %13 = load ptr, ptr @attrs_st_ino, align 8
  %14 = getelementptr inbounds i8, ptr %1, i64 8
  %15 = load i64, ptr %14, align 8
  tail call void %12(ptr noundef nonnull %0, ptr noundef %2, ptr noundef %13, i64 noundef %15) #11
  %16 = load ptr, ptr %0, align 8
  %17 = getelementptr inbounds i8, ptr %16, i64 880
  %18 = load ptr, ptr %17, align 8
  %19 = load ptr, ptr @attrs_st_dev, align 8
  %20 = load i64, ptr %1, align 8
  tail call void %18(ptr noundef nonnull %0, ptr noundef %2, ptr noundef %19, i64 noundef %20) #11
  %21 = load ptr, ptr %0, align 8
  %22 = getelementptr inbounds i8, ptr %21, i64 880
  %23 = load ptr, ptr %22, align 8
  %24 = load ptr, ptr @attrs_st_rdev, align 8
  %25 = getelementptr inbounds i8, ptr %1, i64 40
  %26 = load i64, ptr %25, align 8
  tail call void %23(ptr noundef nonnull %0, ptr noundef %2, ptr noundef %24, i64 noundef %26) #11
  %27 = load ptr, ptr %0, align 8
  %28 = getelementptr inbounds i8, ptr %27, i64 872
  %29 = load ptr, ptr %28, align 8
  %30 = load ptr, ptr @attrs_st_nlink, align 8
  %31 = getelementptr inbounds i8, ptr %1, i64 16
  %32 = load i64, ptr %31, align 8
  %33 = trunc i64 %32 to i32
  tail call void %29(ptr noundef nonnull %0, ptr noundef %2, ptr noundef %30, i32 noundef %33) #11
  %34 = load ptr, ptr %0, align 8
  %35 = getelementptr inbounds i8, ptr %34, i64 872
  %36 = load ptr, ptr %35, align 8
  %37 = load ptr, ptr @attrs_st_uid, align 8
  %38 = getelementptr inbounds i8, ptr %1, i64 28
  %39 = load i32, ptr %38, align 4
  tail call void %36(ptr noundef nonnull %0, ptr noundef %2, ptr noundef %37, i32 noundef %39) #11
  %40 = load ptr, ptr %0, align 8
  %41 = getelementptr inbounds i8, ptr %40, i64 872
  %42 = load ptr, ptr %41, align 8
  %43 = load ptr, ptr @attrs_st_gid, align 8
  %44 = getelementptr inbounds i8, ptr %1, i64 32
  %45 = load i32, ptr %44, align 8
  tail call void %42(ptr noundef nonnull %0, ptr noundef %2, ptr noundef %43, i32 noundef %45) #11
  %46 = load ptr, ptr %0, align 8
  %47 = getelementptr inbounds i8, ptr %46, i64 880
  %48 = load ptr, ptr %47, align 8
  %49 = load ptr, ptr @attrs_st_size, align 8
  %50 = getelementptr inbounds i8, ptr %1, i64 48
  %51 = load i64, ptr %50, align 8
  tail call void %48(ptr noundef nonnull %0, ptr noundef %2, ptr noundef %49, i64 noundef %51) #11
  %52 = load ptr, ptr %0, align 8
  %53 = getelementptr inbounds i8, ptr %52, i64 880
  %54 = load ptr, ptr %53, align 8
  %55 = load ptr, ptr @attrs_st_atime_sec, align 8
  %56 = getelementptr inbounds i8, ptr %1, i64 72
  %57 = load i64, ptr %56, align 8
  tail call void %54(ptr noundef nonnull %0, ptr noundef %2, ptr noundef %55, i64 noundef %57) #11
  %58 = load ptr, ptr %0, align 8
  %59 = getelementptr inbounds i8, ptr %58, i64 880
  %60 = load ptr, ptr %59, align 8
  %61 = load ptr, ptr @attrs_st_mtime_sec, align 8
  %62 = getelementptr inbounds i8, ptr %1, i64 88
  %63 = load i64, ptr %62, align 8
  tail call void %60(ptr noundef nonnull %0, ptr noundef %2, ptr noundef %61, i64 noundef %63) #11
  %64 = load ptr, ptr %0, align 8
  %65 = getelementptr inbounds i8, ptr %64, i64 880
  %66 = load ptr, ptr %65, align 8
  %67 = load ptr, ptr @attrs_st_ctime_sec, align 8
  %68 = getelementptr inbounds i8, ptr %1, i64 104
  %69 = load i64, ptr %68, align 8
  tail call void %66(ptr noundef nonnull %0, ptr noundef %2, ptr noundef %67, i64 noundef %69) #11
  %70 = load ptr, ptr %0, align 8
  %71 = getelementptr inbounds i8, ptr %70, i64 880
  %72 = load ptr, ptr %71, align 8
  %73 = load ptr, ptr @attrs_st_atime_nsec, align 8
  %74 = getelementptr inbounds i8, ptr %1, i64 80
  %75 = load i64, ptr %74, align 8
  tail call void %72(ptr noundef nonnull %0, ptr noundef %2, ptr noundef %73, i64 noundef %75) #11
  %76 = load ptr, ptr %0, align 8
  %77 = getelementptr inbounds i8, ptr %76, i64 880
  %78 = load ptr, ptr %77, align 8
  %79 = load ptr, ptr @attrs_st_mtime_nsec, align 8
  %80 = getelementptr inbounds i8, ptr %1, i64 96
  %81 = load i64, ptr %80, align 8
  tail call void %78(ptr noundef nonnull %0, ptr noundef %2, ptr noundef %79, i64 noundef %81) #11
  %82 = load ptr, ptr %0, align 8
  %83 = getelementptr inbounds i8, ptr %82, i64 880
  %84 = load ptr, ptr %83, align 8
  %85 = load ptr, ptr @attrs_st_ctime_nsec, align 8
  %86 = getelementptr inbounds i8, ptr %1, i64 112
  %87 = load i64, ptr %86, align 8
  tail call void %84(ptr noundef nonnull %0, ptr noundef %2, ptr noundef %85, i64 noundef %87) #11
  ret void
}